Archive member included to satisfy reference by file (symbol)

/usr/lib/gcc/arm-none-eabi/10.3.1/libgcc.a(_udivsi3.o)
                              build/lib/stdio.o (__aeabi_uidiv)
/usr/lib/gcc/arm-none-eabi/10.3.1/libgcc.a(_dvmd_tls.o)
                              /usr/lib/gcc/arm-none-eabi/10.3.1/libgcc.a(_udivsi3.o) (__aeabi_idiv0)

Memory Configuration

Name             Origin             Length             Attributes
*default*        0x0000000000000000 0xffffffffffffffff

Linker script and memory map

LOAD build/Entry.os
LOAD build/boot/Handler.o
LOAD build/boot/Main.o
LOAD build/hal/Interrupt.o
LOAD build/hal/Regs.o
LOAD build/hal/Timer.o
LOAD build/hal/Uart.o
LOAD build/lib/asm.o
LOAD build/lib/stdio.o
LOAD build/lib/stdlib.o
LOAD build/kernel/task.o
LOAD /usr/lib/gcc/arm-none-eabi/10.3.1/libgcc.a
                0x0000000000000000                . = 0x0

.text           0x0000000000000000     0x1378
 *(vector_start)
 *(.text .rodata)
 .text          0x0000000000000000       0xd4 build/Entry.os
                0x0000000000000000                vector_start
                0x000000000000003c                vector_end
 .text          0x00000000000000d4       0x24 build/boot/Handler.o
                0x00000000000000d4                Irq_Handler
                0x00000000000000f0                Fiq_Handler
 .text          0x00000000000000f8      0x26c build/boot/Main.o
                0x00000000000000f8                main
                0x000000000000031c                User_task0
                0x0000000000000334                User_task1
                0x000000000000034c                User_task2
 .rodata        0x0000000000000364      0x136 build/boot/Main.o
 *fill*         0x000000000000049a        0x2 
 .text          0x000000000000049c      0x2f8 build/hal/Interrupt.o
                0x000000000000049c                Hal_interrupt_init
                0x0000000000000538                Hal_interrupt_enable
                0x0000000000000604                Hal_interrupt_disable
                0x00000000000006d8                Hal_interrupt_register_handler
                0x0000000000000710                Hal_interrupt_run_handler
 .text          0x0000000000000794        0x0 build/hal/Regs.o
 .text          0x0000000000000794      0x210 build/hal/Timer.o
                0x0000000000000794                Hal_timer_init
                0x0000000000000938                Hal_timer_get_1ms_counter
 .text          0x00000000000009a4      0x1b4 build/hal/Uart.o
                0x00000000000009a4                Hal_uart_init
                0x0000000000000a44                Hal_uart_put_char
                0x0000000000000aa0                Hal_uart_get_char
 .text          0x0000000000000b58       0xb0 build/lib/asm.o
                0x0000000000000b58                enable_irq
                0x0000000000000b84                enable_fiq
                0x0000000000000bb0                disable_irq
                0x0000000000000bdc                disable_fiq
 .text          0x0000000000000c08      0x444 build/lib/stdio.o
                0x0000000000000c08                putstr
                0x0000000000000c68                kprintf
                0x0000000000000cb8                vsprintf
                0x0000000000000f38                utoa
 .rodata        0x000000000000104c        0x7 build/lib/stdio.o
 *fill*         0x0000000000001053        0x1 
 .text          0x0000000000001054       0x4c build/lib/stdlib.o
                0x0000000000001054                delay
 .text          0x00000000000010a0      0x1c0 build/kernel/task.o
                0x00000000000010a0                Kernel_task_init
                0x00000000000011d4                Kernel_task_create
 .text          0x0000000000001260      0x114 /usr/lib/gcc/arm-none-eabi/10.3.1/libgcc.a(_udivsi3.o)
                0x0000000000001260                __udivsi3
                0x0000000000001260                __aeabi_uidiv
                0x0000000000001354                __aeabi_uidivmod
 .text          0x0000000000001374        0x4 /usr/lib/gcc/arm-none-eabi/10.3.1/libgcc.a(_dvmd_tls.o)
                0x0000000000001374                __aeabi_ldiv0
                0x0000000000001374                __aeabi_idiv0

.glue_7         0x0000000000001378        0x0
 .glue_7        0x0000000000001378        0x0 linker stubs

.glue_7t        0x0000000000001378        0x0
 .glue_7t       0x0000000000001378        0x0 linker stubs

.vfp11_veneer   0x0000000000001378        0x0
 .vfp11_veneer  0x0000000000001378        0x0 linker stubs

.v4_bx          0x0000000000001378        0x0
 .v4_bx         0x0000000000001378        0x0 linker stubs

.iplt           0x0000000000001378        0x0
 .iplt          0x0000000000001378        0x0 build/Entry.os

.rel.dyn        0x0000000000001378        0x0
 .rel.iplt      0x0000000000001378        0x0 build/Entry.os

.data           0x0000000000001378       0x10
 *(.data)
 .data          0x0000000000001378        0x0 build/Entry.os
 .data          0x0000000000001378        0x0 build/boot/Handler.o
 .data          0x0000000000001378        0x0 build/boot/Main.o
 .data          0x0000000000001378        0x0 build/hal/Interrupt.o
 .data          0x0000000000001378       0x10 build/hal/Regs.o
                0x0000000000001378                Uart
                0x000000000000137c                GicCpu
                0x0000000000001380                GicDist
                0x0000000000001384                Timer
 .data          0x0000000000001388        0x0 build/hal/Timer.o
 .data          0x0000000000001388        0x0 build/hal/Uart.o
 .data          0x0000000000001388        0x0 build/lib/asm.o
 .data          0x0000000000001388        0x0 build/lib/stdio.o
 .data          0x0000000000001388        0x0 build/lib/stdlib.o
 .data          0x0000000000001388        0x0 build/kernel/task.o
 .data          0x0000000000001388        0x0 /usr/lib/gcc/arm-none-eabi/10.3.1/libgcc.a(_udivsi3.o)
 .data          0x0000000000001388        0x0 /usr/lib/gcc/arm-none-eabi/10.3.1/libgcc.a(_dvmd_tls.o)

.igot.plt       0x0000000000001388        0x0
 .igot.plt      0x0000000000001388        0x0 build/Entry.os

.bss            0x0000000000001388     0x1a04
 *(.bss)
 .bss           0x0000000000001388        0x0 build/Entry.os
 .bss           0x0000000000001388        0x0 build/boot/Handler.o
 .bss           0x0000000000001388        0x0 build/boot/Main.o
 .bss           0x0000000000001388      0x3fc build/hal/Interrupt.o
 .bss           0x0000000000001784        0x0 build/hal/Regs.o
 .bss           0x0000000000001784        0x4 build/hal/Timer.o
 .bss           0x0000000000001788        0x0 build/hal/Uart.o
 .bss           0x0000000000001788        0x0 build/lib/asm.o
 .bss           0x0000000000001788      0x400 build/lib/stdio.o
 .bss           0x0000000000001b88        0x0 build/lib/stdlib.o
 .bss           0x0000000000001b88     0x1204 build/kernel/task.o
 .bss           0x0000000000002d8c        0x0 /usr/lib/gcc/arm-none-eabi/10.3.1/libgcc.a(_udivsi3.o)
 .bss           0x0000000000002d8c        0x0 /usr/lib/gcc/arm-none-eabi/10.3.1/libgcc.a(_dvmd_tls.o)
OUTPUT(build/miniOS_arm.axf elf32-littlearm)
LOAD linker stubs

.ARM.attributes
                0x0000000000000000       0x2b
 .ARM.attributes
                0x0000000000000000       0x1d build/Entry.os
 .ARM.attributes
                0x000000000000001d       0x2f build/boot/Handler.o
 .ARM.attributes
                0x000000000000004c       0x2f build/boot/Main.o
 .ARM.attributes
                0x000000000000007b       0x2f build/hal/Interrupt.o
 .ARM.attributes
                0x00000000000000aa       0x2f build/hal/Regs.o
 .ARM.attributes
                0x00000000000000d9       0x2f build/hal/Timer.o
 .ARM.attributes
                0x0000000000000108       0x2f build/hal/Uart.o
 .ARM.attributes
                0x0000000000000137       0x2f build/lib/asm.o
 .ARM.attributes
                0x0000000000000166       0x2f build/lib/stdio.o
 .ARM.attributes
                0x0000000000000195       0x2f build/lib/stdlib.o
 .ARM.attributes
                0x00000000000001c4       0x2f build/kernel/task.o
 .ARM.attributes
                0x00000000000001f3       0x1c /usr/lib/gcc/arm-none-eabi/10.3.1/libgcc.a(_udivsi3.o)
 .ARM.attributes
                0x000000000000020f       0x1c /usr/lib/gcc/arm-none-eabi/10.3.1/libgcc.a(_dvmd_tls.o)

.comment        0x0000000000000000       0x33
 .comment       0x0000000000000000       0x33 build/boot/Handler.o
                                         0x34 (size before relaxing)
 .comment       0x0000000000000033       0x34 build/boot/Main.o
 .comment       0x0000000000000033       0x34 build/hal/Interrupt.o
 .comment       0x0000000000000033       0x34 build/hal/Regs.o
 .comment       0x0000000000000033       0x34 build/hal/Timer.o
 .comment       0x0000000000000033       0x34 build/hal/Uart.o
 .comment       0x0000000000000033       0x34 build/lib/asm.o
 .comment       0x0000000000000033       0x34 build/lib/stdio.o
 .comment       0x0000000000000033       0x34 build/lib/stdlib.o
 .comment       0x0000000000000033       0x34 build/kernel/task.o

.debug_line     0x0000000000000000      0x8cc
 .debug_line    0x0000000000000000       0x6d build/Entry.os
 .debug_line    0x000000000000006d       0x4c build/boot/Handler.o
 .debug_line    0x00000000000000b9       0xf9 build/boot/Main.o
 .debug_line    0x00000000000001b2      0x115 build/hal/Interrupt.o
 .debug_line    0x00000000000002c7       0x63 build/hal/Regs.o
 .debug_line    0x000000000000032a       0xd7 build/hal/Timer.o
 .debug_line    0x0000000000000401       0xe2 build/hal/Uart.o
 .debug_line    0x00000000000004e3       0x64 build/lib/asm.o
 .debug_line    0x0000000000000547      0x17a build/lib/stdio.o
 .debug_line    0x00000000000006c1       0x6a build/lib/stdlib.o
 .debug_line    0x000000000000072b       0xd6 build/kernel/task.o
 .debug_line    0x0000000000000801       0x74 /usr/lib/gcc/arm-none-eabi/10.3.1/libgcc.a(_udivsi3.o)
 .debug_line    0x0000000000000875       0x57 /usr/lib/gcc/arm-none-eabi/10.3.1/libgcc.a(_dvmd_tls.o)

.debug_info     0x0000000000000000     0x2f44
 .debug_info    0x0000000000000000       0x26 build/Entry.os
 .debug_info    0x0000000000000026       0x82 build/boot/Handler.o
 .debug_info    0x00000000000000a8      0x18a build/boot/Main.o
 .debug_info    0x0000000000000232      0x691 build/hal/Interrupt.o
 .debug_info    0x00000000000008c3     0x124d build/hal/Regs.o
 .debug_info    0x0000000000001b10      0x2c6 build/hal/Timer.o
 .debug_info    0x0000000000001dd6      0xbcc build/hal/Uart.o
 .debug_info    0x00000000000029a2       0x6e build/lib/asm.o
 .debug_info    0x0000000000002a10      0x2ad build/lib/stdio.o
 .debug_info    0x0000000000002cbd       0x9a build/lib/stdlib.o
 .debug_info    0x0000000000002d57      0x1a1 build/kernel/task.o
 .debug_info    0x0000000000002ef8       0x26 /usr/lib/gcc/arm-none-eabi/10.3.1/libgcc.a(_udivsi3.o)
 .debug_info    0x0000000000002f1e       0x26 /usr/lib/gcc/arm-none-eabi/10.3.1/libgcc.a(_dvmd_tls.o)

.debug_abbrev   0x0000000000000000      0x9c8
 .debug_abbrev  0x0000000000000000       0x14 build/Entry.os
 .debug_abbrev  0x0000000000000014       0x5e build/boot/Handler.o
 .debug_abbrev  0x0000000000000072       0xd3 build/boot/Main.o
 .debug_abbrev  0x0000000000000145      0x19c build/hal/Interrupt.o
 .debug_abbrev  0x00000000000002e1      0x11a build/hal/Regs.o
 .debug_abbrev  0x00000000000003fb      0x132 build/hal/Timer.o
 .debug_abbrev  0x000000000000052d      0x19d build/hal/Uart.o
 .debug_abbrev  0x00000000000006ca       0x2e build/lib/asm.o
 .debug_abbrev  0x00000000000006f8      0x131 build/lib/stdio.o
 .debug_abbrev  0x0000000000000829       0x75 build/lib/stdlib.o
 .debug_abbrev  0x000000000000089e      0x102 build/kernel/task.o
 .debug_abbrev  0x00000000000009a0       0x14 /usr/lib/gcc/arm-none-eabi/10.3.1/libgcc.a(_udivsi3.o)
 .debug_abbrev  0x00000000000009b4       0x14 /usr/lib/gcc/arm-none-eabi/10.3.1/libgcc.a(_dvmd_tls.o)

.debug_aranges  0x0000000000000000      0x198
 .debug_aranges
                0x0000000000000000       0x20 build/Entry.os
 .debug_aranges
                0x0000000000000020       0x20 build/boot/Handler.o
 .debug_aranges
                0x0000000000000040       0x20 build/boot/Main.o
 .debug_aranges
                0x0000000000000060       0x20 build/hal/Interrupt.o
 .debug_aranges
                0x0000000000000080       0x18 build/hal/Regs.o
 .debug_aranges
                0x0000000000000098       0x20 build/hal/Timer.o
 .debug_aranges
                0x00000000000000b8       0x20 build/hal/Uart.o
 .debug_aranges
                0x00000000000000d8       0x20 build/lib/asm.o
 .debug_aranges
                0x00000000000000f8       0x20 build/lib/stdio.o
 .debug_aranges
                0x0000000000000118       0x20 build/lib/stdlib.o
 .debug_aranges
                0x0000000000000138       0x20 build/kernel/task.o
 .debug_aranges
                0x0000000000000158       0x20 /usr/lib/gcc/arm-none-eabi/10.3.1/libgcc.a(_udivsi3.o)
 .debug_aranges
                0x0000000000000178       0x20 /usr/lib/gcc/arm-none-eabi/10.3.1/libgcc.a(_dvmd_tls.o)

.debug_str      0x0000000000000000      0xaa0
 .debug_str     0x0000000000000000       0x3c build/Entry.os
 .debug_str     0x000000000000003c       0xed build/boot/Handler.o
                                        0x129 (size before relaxing)
 .debug_str     0x0000000000000129       0x7e build/boot/Main.o
                                        0x185 (size before relaxing)
 .debug_str     0x00000000000001a7      0x2ae build/hal/Interrupt.o
                                        0x3c8 (size before relaxing)
 .debug_str     0x0000000000000455      0x3af build/hal/Regs.o
                                        0x6b9 (size before relaxing)
 .debug_str     0x0000000000000804       0x6a build/hal/Timer.o
                                        0x26b (size before relaxing)
 .debug_str     0x000000000000086e       0x4a build/hal/Uart.o
                                        0x459 (size before relaxing)
 .debug_str     0x00000000000008b8       0x38 build/lib/asm.o
                                         0xd1 (size before relaxing)
 .debug_str     0x00000000000008f0       0x6e build/lib/stdio.o
                                        0x193 (size before relaxing)
 .debug_str     0x000000000000095e       0x18 build/lib/stdlib.o
                                        0x123 (size before relaxing)
 .debug_str     0x0000000000000976       0x9d build/kernel/task.o
                                        0x1b0 (size before relaxing)
 .debug_str     0x0000000000000a13       0x8d /usr/lib/gcc/arm-none-eabi/10.3.1/libgcc.a(_udivsi3.o)
 .debug_str     0x0000000000000aa0       0x8d /usr/lib/gcc/arm-none-eabi/10.3.1/libgcc.a(_dvmd_tls.o)

.debug_frame    0x0000000000000000      0x4d4
 .debug_frame   0x0000000000000000       0x50 build/boot/Handler.o
 .debug_frame   0x0000000000000050       0xfc build/boot/Main.o
 .debug_frame   0x000000000000014c       0xb0 build/hal/Interrupt.o
 .debug_frame   0x00000000000001fc       0x70 build/hal/Timer.o
 .debug_frame   0x000000000000026c       0x8c build/hal/Uart.o
 .debug_frame   0x00000000000002f8       0x90 build/lib/asm.o
 .debug_frame   0x0000000000000388       0xac build/lib/stdio.o
 .debug_frame   0x0000000000000434       0x30 build/lib/stdlib.o
 .debug_frame   0x0000000000000464       0x50 build/kernel/task.o
 .debug_frame   0x00000000000004b4       0x20 /usr/lib/gcc/arm-none-eabi/10.3.1/libgcc.a(_udivsi3.o)
